#include <math.h>
#include <stdio.h>
#include <stdlib.h>
#include <string.h>

int main(int argc, char* argv[])
{
	double num[100];
	int m,i,j;
	double p;
	double sum;
	scanf("%d",&m);
	for(i=0;i<m;i++){
		scanf("%lf",&num[i]);
	}
	for(i=0;i<m;i++){ 
		sum=0;
		 p=1;
		for(j=0;j<num[i];j++){
		  p=(double)(p+1)/p;
	      sum+=p;
	
		}
		printf("%.3lf\n",sum); 
	}
	 
	return 0;
}