; ModuleID = '29/403.c'
source_filename = "29/403.c"
target datalayout = "e-m:e-p270:32:32-p271:32:32-p272:64:64-i64:64-f80:128-n8:16:32:64-S128"
target triple = "x86_64-pc-linux-gnu"

@.str = private unnamed_addr constant [3 x i8] c"%d\00", align 1
@.str.1 = private unnamed_addr constant [4 x i8] c"%lf\00", align 1
@.str.2 = private unnamed_addr constant [7 x i8] c"%.3lf\0A\00", align 1

; Function Attrs: noinline nounwind uwtable
define dso_local i32 @main(i32 %0, i8** %1) #0 {
  %3 = alloca i32, align 4
  %4 = alloca i32, align 4
  %5 = alloca i8**, align 8
  %6 = alloca [100 x double], align 16
  %7 = alloca i32, align 4
  %8 = alloca i32, align 4
  %9 = alloca i32, align 4
  %10 = alloca double, align 8
  %11 = alloca double, align 8
  store i32 0, i32* %3, align 4
  store i32 %0, i32* %4, align 4
  store i8** %1, i8*** %5, align 8
  %12 = call i32 (i8*, ...) @__isoc99_scanf(i8* getelementptr inbounds ([3 x i8], [3 x i8]* @.str, i64 0, i64 0), i32* %7)
  store i32 0, i32* %8, align 4
  br label %13

13:                                               ; preds = %22, %2
  %14 = load i32, i32* %8, align 4
  %15 = load i32, i32* %7, align 4
  %16 = icmp slt i32 %14, %15
  br i1 %16, label %17, label %25

17:                                               ; preds = %13
  %18 = load i32, i32* %8, align 4
  %19 = sext i32 %18 to i64
  %20 = getelementptr inbounds [100 x double], [100 x double]* %6, i64 0, i64 %19
  %21 = call i32 (i8*, ...) @__isoc99_scanf(i8* getelementptr inbounds ([4 x i8], [4 x i8]* @.str.1, i64 0, i64 0), double* %20)
  br label %22

22:                                               ; preds = %17
  %23 = load i32, i32* %8, align 4
  %24 = add nsw i32 %23, 1
  store i32 %24, i32* %8, align 4
  br label %13

25:                                               ; preds = %13
  store i32 0, i32* %8, align 4
  br label %26

26:                                               ; preds = %53, %25
  %27 = load i32, i32* %8, align 4
  %28 = load i32, i32* %7, align 4
  %29 = icmp slt i32 %27, %28
  br i1 %29, label %30, label %56

30:                                               ; preds = %26
  store double 0.000000e+00, double* %11, align 8
  store double 1.000000e+00, double* %10, align 8
  store i32 0, i32* %9, align 4
  br label %31

31:                                               ; preds = %47, %30
  %32 = load i32, i32* %9, align 4
  %33 = sitofp i32 %32 to double
  %34 = load i32, i32* %8, align 4
  %35 = sext i32 %34 to i64
  %36 = getelementptr inbounds [100 x double], [100 x double]* %6, i64 0, i64 %35
  %37 = load double, double* %36, align 8
  %38 = fcmp olt double %33, %37
  br i1 %38, label %39, label %50

39:                                               ; preds = %31
  %40 = load double, double* %10, align 8
  %41 = fadd double %40, 1.000000e+00
  %42 = load double, double* %10, align 8
  %43 = fdiv double %41, %42
  store double %43, double* %10, align 8
  %44 = load double, double* %10, align 8
  %45 = load double, double* %11, align 8
  %46 = fadd double %45, %44
  store double %46, double* %11, align 8
  br label %47

47:                                               ; preds = %39
  %48 = load i32, i32* %9, align 4
  %49 = add nsw i32 %48, 1
  store i32 %49, i32* %9, align 4
  br label %31

50:                                               ; preds = %31
  %51 = load double, double* %11, align 8
  %52 = call i32 (i8*, ...) @printf(i8* getelementptr inbounds ([7 x i8], [7 x i8]* @.str.2, i64 0, i64 0), double %51)
  br label %53

53:                                               ; preds = %50
  %54 = load i32, i32* %8, align 4
  %55 = add nsw i32 %54, 1
  store i32 %55, i32* %8, align 4
  br label %26

56:                                               ; preds = %26
  ret i32 0
}

declare dso_local i32 @__isoc99_scanf(i8*, ...) #1

declare dso_local i32 @printf(i8*, ...) #1


!llvm.module.flags = !{!0}
!llvm.ident = !{!1}

!0 = !{i32 1, !"wchar_size", i32 4}
!1 = !{!"clang version 10.0.0-4ubuntu1 "}
