; ModuleID = 'source-C-CXX/28/403.c'
source_filename = "source-C-CXX/28/403.c"
target datalayout = "e-m:e-p270:32:32-p271:32:32-p272:64:64-i64:64-f80:128-n8:16:32:64-S128"
target triple = "x86_64-pc-linux-gnu"

@.str = private unnamed_addr constant [3 x i8] c"%d\00", align 1
@.str.1 = private unnamed_addr constant [4 x i8] c"%lf\00", align 1
@.str.2 = private unnamed_addr constant [7 x i8] c"%.3lf\0A\00", align 1

; Function Attrs: nofree nounwind sspstrong uwtable
define dso_local i32 @main(i32 %0, i8** nocapture readnone %1) local_unnamed_addr #0 {
  %3 = alloca [100 x double], align 16
  %4 = alloca i32, align 4
  %5 = bitcast [100 x double]* %3 to i8*
  call void @llvm.lifetime.start.p0i8(i64 800, i8* nonnull %5) #3
  %6 = bitcast i32* %4 to i8*
  call void @llvm.lifetime.start.p0i8(i64 4, i8* nonnull %6) #3
  %7 = call i32 (i8*, ...) @__isoc99_scanf(i8* getelementptr inbounds ([3 x i8], [3 x i8]* @.str, i64 0, i64 0), i32* nonnull %4)
  %8 = load i32, i32* %4, align 4, !tbaa !5
  %9 = icmp sgt i32 %8, 0
  br i1 %9, label %12, label %42

10:                                               ; preds = %12
  %11 = icmp sgt i32 %17, 0
  br i1 %11, label %20, label %42

12:                                               ; preds = %2, %12
  %13 = phi i64 [ %16, %12 ], [ 0, %2 ]
  %14 = getelementptr inbounds [100 x double], [100 x double]* %3, i64 0, i64 %13
  %15 = call i32 (i8*, ...) @__isoc99_scanf(i8* getelementptr inbounds ([4 x i8], [4 x i8]* @.str.1, i64 0, i64 0), double* nonnull %14)
  %16 = add nuw nsw i64 %13, 1
  %17 = load i32, i32* %4, align 4, !tbaa !5
  %18 = sext i32 %17 to i64
  %19 = icmp slt i64 %16, %18
  br i1 %19, label %12, label %10, !llvm.loop !9

20:                                               ; preds = %10, %35
  %21 = phi i64 [ %38, %35 ], [ 0, %10 ]
  %22 = getelementptr inbounds [100 x double], [100 x double]* %3, i64 0, i64 %21
  %23 = load double, double* %22, align 8, !tbaa !11
  %24 = fcmp ogt double %23, 0.000000e+00
  br i1 %24, label %25, label %35

25:                                               ; preds = %20, %25
  %26 = phi double [ %31, %25 ], [ 0.000000e+00, %20 ]
  %27 = phi double [ %30, %25 ], [ 1.000000e+00, %20 ]
  %28 = phi i32 [ %32, %25 ], [ 0, %20 ]
  %29 = fadd double %27, 1.000000e+00
  %30 = fdiv double %29, %27
  %31 = fadd double %26, %30
  %32 = add nuw nsw i32 %28, 1
  %33 = sitofp i32 %32 to double
  %34 = fcmp ogt double %23, %33
  br i1 %34, label %25, label %35, !llvm.loop !13

35:                                               ; preds = %25, %20
  %36 = phi double [ 0.000000e+00, %20 ], [ %31, %25 ]
  %37 = call i32 (i8*, ...) @printf(i8* nonnull dereferenceable(1) getelementptr inbounds ([7 x i8], [7 x i8]* @.str.2, i64 0, i64 0), double %36)
  %38 = add nuw nsw i64 %21, 1
  %39 = load i32, i32* %4, align 4, !tbaa !5
  %40 = sext i32 %39 to i64
  %41 = icmp slt i64 %38, %40
  br i1 %41, label %20, label %42, !llvm.loop !14

42:                                               ; preds = %35, %2, %10
  call void @llvm.lifetime.end.p0i8(i64 4, i8* nonnull %6) #3
  call void @llvm.lifetime.end.p0i8(i64 800, i8* nonnull %5) #3
  ret i32 0
}

; Function Attrs: argmemonly mustprogress nofree nosync nounwind willreturn
declare void @llvm.lifetime.start.p0i8(i64 immarg, i8* nocapture) #1

; Function Attrs: nofree nounwind
declare noundef i32 @__isoc99_scanf(i8* nocapture noundef readonly, ...) local_unnamed_addr #2

; Function Attrs: nofree nounwind
declare noundef i32 @printf(i8* nocapture noundef readonly, ...) local_unnamed_addr #2

; Function Attrs: argmemonly mustprogress nofree nosync nounwind willreturn
declare void @llvm.lifetime.end.p0i8(i64 immarg, i8* nocapture) #1


!llvm.module.flags = !{!0, !1, !2, !3}
!llvm.ident = !{!4}

!0 = !{i32 1, !"wchar_size", i32 4}
!1 = !{i32 7, !"PIC Level", i32 2}
!2 = !{i32 7, !"PIE Level", i32 2}
!3 = !{i32 7, !"uwtable", i32 1}
!4 = !{!"clang version 13.0.0"}
!5 = !{!6, !6, i64 0}
!6 = !{!"int", !7, i64 0}
!7 = !{!"omnipotent char", !8, i64 0}
!8 = !{!"Simple C/C++ TBAA"}
!9 = distinct !{!9, !10}
!10 = !{!"llvm.loop.mustprogress"}
!11 = !{!12, !12, i64 0}
!12 = !{!"double", !7, i64 0}
!13 = distinct !{!13, !10}
!14 = distinct !{!14, !10}
